; Function Attrs: nounwind uwtable
define internal void @VULKAN_INTERNAL_RenderPassHashDestroy(ptr noundef readonly captures(none) %0, ptr noundef %1, ptr noundef %2) #0 {
  %4 = getelementptr inbounds nuw i8, ptr %0, i64 3232
  %5 = load ptr, ptr %4, align 8
  %6 = getelementptr inbounds nuw i8, ptr %0, i64 1616
  %7 = load ptr, ptr %6, align 8
  %8 = load ptr, ptr %2, align 8
  tail call void %5(ptr noundef %7, ptr noundef %8, ptr noundef null) #13
  tail call void @SDL_free_REAL(ptr noundef nonnull %2) #13
  tail call void @SDL_free_REAL(ptr noundef %1) #13
  ret void
}